(lp0
S'RTL_STORE_CD'
p1
aS'RTL_FIPS_COUNTY_DSC'
p2
aS'RTL_PREMISE_TYPE_CD'
p3
aS'RTL_CHANNEL_DSC'
p4
aS'RTL_SUBCHANNEL_DSC'
p5
aS'RTL_BEER_FLAG'
p6
aS'RTL_LIQUOR_FLG'
p7
aS'RTL_STATE_DSC'
p8
aS'LowPoint_Y'
p9
a.